target datalayout = "e-m:e-p270:32:32-p271:32:32-p272:64:64-i64:64-i128:128-f80:128-n8:16:32:64-S128"
target triple = "x86_64-pc-linux-gnu"

@.str.67 = private unnamed_addr constant [20 x i8] c"GNUSparseFile/blank\00", align 1
@.str.68 = private unnamed_addr constant [16 x i8] c"GNUSparseFile.0\00", align 1

; Function Attrs: nounwind uwtable
define internal ptr @build_gnu_sparse_name(ptr noundef %0, ptr noundef %1) #0 {
  %3 = alloca ptr, align 8
  %4 = alloca ptr, align 8
  %5 = alloca ptr, align 8
  %6 = alloca ptr, align 8
  store ptr %0, ptr %4, align 8
  store ptr %1, ptr %5, align 8
  %7 = load ptr, ptr %5, align 8
  %8 = icmp eq ptr %7, null
  br i1 %8, label %14, label %9

9:                                                ; preds = %2
  %10 = load ptr, ptr %5, align 8
  %11 = load i8, ptr %10, align 1
  %12 = sext i8 %11 to i32
  %13 = icmp eq i32 %12, 0
  br i1 %13, label %14, label %18

14:                                               ; preds = %9, %2
  %15 = load ptr, ptr %4, align 8
  %16 = call ptr @strcpy(ptr noundef %15, ptr noundef @.str.67) #11
  %17 = load ptr, ptr %4, align 8
  store ptr %17, ptr %3, align 8
  br label %67

18:                                               ; preds = %9
  %19 = load ptr, ptr %5, align 8
  %20 = load ptr, ptr %5, align 8
  %21 = call i64 @strlen(ptr noundef %20) #9
  %22 = getelementptr inbounds i8, ptr %19, i64 %21
  store ptr %22, ptr %6, align 8
  br label %23

23:                                               ; preds = %53, %33, %18
  %24 = load ptr, ptr %6, align 8
  %25 = load ptr, ptr %5, align 8
  %26 = icmp ugt ptr %24, %25
  br i1 %26, label %27, label %36

27:                                               ; preds = %23
  %28 = load ptr, ptr %6, align 8
  %29 = getelementptr inbounds i8, ptr %28, i64 -1
  %30 = load i8, ptr %29, align 1
  %31 = sext i8 %30 to i32
  %32 = icmp eq i32 %31, 47
  br i1 %32, label %33, label %36

33:                                               ; preds = %27
  %34 = load ptr, ptr %6, align 8
  %35 = getelementptr inbounds i8, ptr %34, i32 -1
  store ptr %35, ptr %6, align 8
  br label %23

36:                                               ; preds = %27, %23
  %37 = load ptr, ptr %6, align 8
  %38 = load ptr, ptr %5, align 8
  %39 = getelementptr inbounds i8, ptr %38, i64 1
  %40 = icmp ugt ptr %37, %39
  br i1 %40, label %41, label %56

41:                                               ; preds = %36
  %42 = load ptr, ptr %6, align 8
  %43 = getelementptr inbounds i8, ptr %42, i64 -1
  %44 = load i8, ptr %43, align 1
  %45 = sext i8 %44 to i32
  %46 = icmp eq i32 %45, 46
  br i1 %46, label %47, label %56

47:                                               ; preds = %41
  %48 = load ptr, ptr %6, align 8
  %49 = getelementptr inbounds i8, ptr %48, i64 -2
  %50 = load i8, ptr %49, align 1
  %51 = sext i8 %50 to i32
  %52 = icmp eq i32 %51, 47
  br i1 %52, label %53, label %56

53:                                               ; preds = %47
  %54 = load ptr, ptr %6, align 8
  %55 = getelementptr inbounds i8, ptr %54, i32 -1
  store ptr %55, ptr %6, align 8
  br label %23

56:                                               ; preds = %47, %41, %36
  br label %57

57:                                               ; preds = %56
  %58 = load ptr, ptr %4, align 8
  %59 = load ptr, ptr %5, align 8
  %60 = load ptr, ptr %6, align 8
  %61 = load ptr, ptr %5, align 8
  %62 = ptrtoint ptr %60 to i64
  %63 = ptrtoint ptr %61 to i64
  %64 = sub i64 %62, %63
  %65 = call ptr @build_ustar_entry_name(ptr noundef %58, ptr noundef %59, i64 noundef %64, ptr noundef @.str.68)
  %66 = load ptr, ptr %4, align 8
  store ptr %66, ptr %3, align 8
  br label %67

67:                                               ; preds = %57, %14
  %68 = load ptr, ptr %3, align 8
  ret ptr %68
}