; Function Attrs: nofree nounwind memory(read, argmem: readwrite, inaccessiblemem: none) uwtable
define internal fastcc noundef nonnull ptr @build_gnu_sparse_name(ptr noundef nonnull returned %0, ptr noundef %1) unnamed_addr #8 {
  %3 = icmp eq ptr %1, null
  br i1 %3, label %7, label %4

4:                                                ; preds = %2
  %5 = load i8, ptr %1, align 1
  %6 = icmp eq i8 %5, 0
  br i1 %6, label %7, label %8

7:                                                ; preds = %4, %2
  tail call void @llvm.memcpy.p0.p0.i64(ptr noundef nonnull align 1 dereferenceable(20) %0, ptr noundef nonnull align 1 dereferenceable(20) @.str.67, i64 20, i1 false) #15
  br label %21

8:                                                ; preds = %4
  %9 = tail call i64 @strlen(ptr noundef nonnull dereferenceable(1) %1) #17
  %invariant.gep = getelementptr i8, ptr %1, i64 -2
  %10 = icmp sgt i64 %9, 0
  br i1 %10, label %.lr.ph, label %.thread

.lr.ph:                                           ; preds = %8, %.backedge
  %.0.idx26 = phi i64 [ %.0.add23, %.backedge ], [ %9, %8 ]
  %.0.add23 = add nsw i64 %.0.idx26, -1
  %.ptr24 = getelementptr inbounds i8, ptr %1, i64 %.0.add23
  %11 = load i8, ptr %.ptr24, align 1
  %12 = icmp eq i8 %11, 47
  br i1 %12, label %.backedge, label %14

.backedge:                                        ; preds = %.lr.ph, %17
  %13 = icmp samesign ugt i64 %.0.idx26, 1
  br i1 %13, label %.lr.ph, label %.thread

14:                                               ; preds = %.lr.ph
  %.not = icmp eq i64 %.0.idx26, 1
  br i1 %.not, label %.thread, label %15

15:                                               ; preds = %14
  %16 = icmp eq i8 %11, 46
  br i1 %16, label %17, label %.thread

17:                                               ; preds = %15
  %gep = getelementptr i8, ptr %invariant.gep, i64 %.0.idx26
  %18 = load i8, ptr %gep, align 1
  %19 = icmp eq i8 %18, 47
  br i1 %19, label %.backedge, label %.thread

.thread:                                          ; preds = %17, %15, %14, %.backedge, %8
  %.0.idx.lcssa = phi i64 [ %9, %8 ], [ 0, %.backedge ], [ 1, %14 ], [ %.0.idx26, %15 ], [ %.0.idx26, %17 ]
  %20 = tail call fastcc ptr @build_ustar_entry_name(ptr noundef %0, ptr noundef nonnull %1, i64 noundef %.0.idx.lcssa, ptr noundef nonnull @.str.68)
  br label %21

21:                                               ; preds = %.thread, %7
  ret ptr %0
}